(dp0
Vmikael
p1
(dp2
S'repos'
p3
(lp4
(dp5
S'commits'
p6
(lp7
V2008-07-02 20:31:45+00:00
p8
aV2011-10-03 16:58:19+00:00
p9
asS'name'
p10
Vstellaris
p11
sS'desc_language'
p12
S'Unknown'
p13
sassVrom1
p14
(dp15
g3
(lp16
(dp17
g6
(lp18
V2012-03-27 18:03:21+00:00
p19
aV2008-07-09 12:39:11+00:00
p20
asg10
Vovsga
p21
sg12
g13
sassVvetler
p22
(dp23
g3
(lp24
(dp25
g6
(lp26
V2008-07-07 19:22:21+00:00
p27
aV2012-04-08 21:54:53+00:00
p28
asg10
Vfhtmlmps
p29
sg12
Venglish
p30
sassVz19
p31
(dp32
g3
(lp33
(dp34
g6
(lp35
V2008-07-10 12:31:38+00:00
p36
asg10
VFreeBSD
p37
sg12
g13
sassVape_hand
p38
(dp39
g3
(lp40
(dp41
g6
(lp42
V2008-06-25 11:58:03+00:00
p43
aV2008-06-25 11:56:52+00:00
p44
asg10
Vnew
p45
sg12
g13
sassVDeadWisdom
p46
(dp47
g3
(lp48
(dp49
g6
(lp50
V2012-03-26 17:18:19+00:00
p51
aV2008-07-11 21:21:47+00:00
p52
asg10
VSquash
p53
sg12
g30
sassVphlogistonjohn
p54
(dp55
g3
(lp56
(dp57
g6
(lp58
V2008-06-25 02:07:04+00:00
p59
aV2008-06-25 00:53:00+00:00
p60
asg10
Vtweakmsg
p61
sg12
g30
sassVNiam
p62
(dp63
g3
(lp64
(dp65
g6
(lp66
V2008-07-04 09:51:46+00:00
p67
aV2011-11-09 12:42:58+00:00
p68
asg10
Vlibdodo
p69
sg12
g30
sassVmirror
p70
(dp71
g3
(lp72
(dp73
g6
(lp74
V2013-05-08 11:00:38+00:00
p75
aV2014-07-12 06:01:32+00:00
p76
asg10
Vmercurial-crew
p77
sg12
g13
sassVjespern
p78
(dp79
g3
(lp80
(dp81
g6
(lp82
V2008-07-07 13:59:28+00:00
p83
aV2012-03-06 22:44:19+00:00
p84
asg10
Vcx
p85
sg12
g30
sass.